target datalayout = "e-m:e-p270:32:32-p271:32:32-p272:64:64-i64:64-i128:128-f80:128-n8:16:32:64-S128"
target triple = "x86_64-pc-linux-gnu"

%union.pthread_mutex_t = type { %struct.__pthread_mutex_s }
%struct.__pthread_mutex_s = type { i32, i32, i32, i32, i32, i16, i16, %struct.__pthread_internal_list }
%struct.__pthread_internal_list = type { ptr, ptr }
%union.pthread_cond_t = type { %struct.__pthread_cond_s }
%struct.__pthread_cond_s = type { %union.__atomic_wide_counter, %union.__atomic_wide_counter, [2 x i32], [2 x i32], i32, i32, [2 x i32] }
%union.__atomic_wide_counter = type { i64 }

@power_save_config = dso_local global i8 0, align 1
@power_save_enabled = dso_local global i8 0, align 1
@power_mutex = internal global %union.pthread_mutex_t zeroinitializer, align 8
@.str.7 = private unnamed_addr constant [29 x i8] c"%s: pthread_mutex_lock(): %m\00", align 1
@power_cond = internal global %union.pthread_cond_t zeroinitializer, align 8
@.str.11 = private unnamed_addr constant [13 x i8] c"power_save.c\00", align 1
@.str.12 = private unnamed_addr constant [31 x i8] c"%s: pthread_mutex_unlock(): %m\00", align 1
@__func__.power_save_test = private unnamed_addr constant [16 x i8] c"power_save_test\00", align 1
@.str.19 = private unnamed_addr constant [34 x i8] c"%s:%d %s: pthread_cond_wait(): %m\00", align 1

; Function Attrs: nounwind uwtable
define dso_local zeroext i1 @power_save_test() #0 {
  %1 = alloca i8, align 1
  %2 = alloca i32, align 4
  %3 = alloca i32, align 4
  %4 = alloca i32, align 4
  call void @llvm.lifetime.start.p0(i64 1, ptr %1) #9
  br label %5

5:                                                ; preds = %0
  call void @llvm.lifetime.start.p0(i64 4, ptr %2) #9
  %6 = call i32 @pthread_mutex_lock(ptr noundef @power_mutex) #9
  store i32 %6, ptr %2, align 4
  %7 = load i32, ptr %2, align 4
  %8 = icmp ne i32 %7, 0
  br i1 %8, label %9, label %12

9:                                                ; preds = %5
  %10 = load i32, ptr %2, align 4
  %11 = call ptr @__errno_location() #11
  store i32 %10, ptr %11, align 4
  call void (ptr, ...) @fatal_abort(ptr noundef @.str.7, ptr noundef @__func__.power_save_test) #12
  unreachable

12:                                               ; preds = %5
  call void @llvm.lifetime.end.p0(i64 4, ptr %2) #9
  br label %13

13:                                               ; preds = %12
  br label %14

14:                                               ; preds = %13
  br label %15

15:                                               ; preds = %30, %14
  %16 = load i8, ptr @power_save_config, align 1, !range !11, !noundef !12
  %17 = trunc i8 %16 to i1
  %18 = xor i1 %17, true
  br i1 %18, label %19, label %31

19:                                               ; preds = %15
  br label %20

20:                                               ; preds = %19
  call void @llvm.lifetime.start.p0(i64 4, ptr %3) #9
  %21 = call i32 @pthread_cond_wait(ptr noundef @power_cond, ptr noundef @power_mutex)
  store i32 %21, ptr %3, align 4
  %22 = load i32, ptr %3, align 4
  %23 = icmp ne i32 %22, 0
  br i1 %23, label %24, label %28

24:                                               ; preds = %20
  %25 = load i32, ptr %3, align 4
  %26 = call ptr @__errno_location() #11
  store i32 %25, ptr %26, align 4
  %27 = call i32 (ptr, ...) @error(ptr noundef @.str.19, ptr noundef @.str.11, i32 noundef 1169, ptr noundef @__func__.power_save_test)
  br label %28

28:                                               ; preds = %24, %20
  call void @llvm.lifetime.end.p0(i64 4, ptr %3) #9
  br label %29

29:                                               ; preds = %28
  br label %30

30:                                               ; preds = %29
  br label %15, !llvm.loop !16

31:                                               ; preds = %15
  %32 = load i8, ptr @power_save_enabled, align 1, !range !11, !noundef !12
  %33 = trunc i8 %32 to i1
  %34 = zext i1 %33 to i8
  store i8 %34, ptr %1, align 1
  br label %35

35:                                               ; preds = %31
  call void @llvm.lifetime.start.p0(i64 4, ptr %4) #9
  %36 = call i32 @pthread_mutex_unlock(ptr noundef @power_mutex) #9
  store i32 %36, ptr %4, align 4
  %37 = load i32, ptr %4, align 4
  %38 = icmp ne i32 %37, 0
  br i1 %38, label %39, label %42

39:                                               ; preds = %35
  %40 = load i32, ptr %4, align 4
  %41 = call ptr @__errno_location() #11
  store i32 %40, ptr %41, align 4
  call void (ptr, ...) @fatal_abort(ptr noundef @.str.12, ptr noundef @__func__.power_save_test) #12
  unreachable

42:                                               ; preds = %35
  call void @llvm.lifetime.end.p0(i64 4, ptr %4) #9
  br label %43

43:                                               ; preds = %42
  br label %44

44:                                               ; preds = %43
  %45 = load i8, ptr %1, align 1, !range !11, !noundef !12
  %46 = trunc i8 %45 to i1
  call void @llvm.lifetime.end.p0(i64 1, ptr %1) #9
  ret i1 %46
}