; Function Attrs: nounwind uwtable
define dso_local zeroext i1 @power_save_test() local_unnamed_addr #0 {
  %1 = tail call i32 @pthread_mutex_lock(ptr noundef nonnull @power_mutex) #12
  %.not = icmp eq i32 %1, 0
  br i1 %.not, label %.preheader, label %4

.preheader:                                       ; preds = %0
  %2 = load i8, ptr @power_save_config, align 1, !range !13, !noundef !14
  %3 = trunc nuw i8 %2 to i1
  br i1 %3, label %._crit_edge, label %.lr.ph

4:                                                ; preds = %0
  %5 = tail call ptr @__errno_location() #14
  store i32 %1, ptr %5, align 4
  tail call void (ptr, ...) @fatal_abort(ptr noundef nonnull @.str.7, ptr noundef nonnull @__func__.power_save_test) #15
  unreachable

.lr.ph:                                           ; preds = %.preheader, %10
  %6 = tail call i32 @pthread_cond_wait(ptr noundef nonnull @power_cond, ptr noundef nonnull @power_mutex) #12
  %.not10 = icmp eq i32 %6, 0
  br i1 %.not10, label %10, label %7

7:                                                ; preds = %.lr.ph
  %8 = tail call ptr @__errno_location() #14
  store i32 %6, ptr %8, align 4
  %9 = tail call i32 (ptr, ...) @error(ptr noundef nonnull @.str.19, ptr noundef nonnull @.str.11, i32 noundef 1169, ptr noundef nonnull @__func__.power_save_test) #12
  br label %10

10:                                               ; preds = %7, %.lr.ph
  %11 = load i8, ptr @power_save_config, align 1, !range !13, !noundef !14
  %12 = trunc nuw i8 %11 to i1
  br i1 %12, label %._crit_edge, label %.lr.ph, !llvm.loop !19

._crit_edge:                                      ; preds = %10, %.preheader
  %13 = load i8, ptr @power_save_enabled, align 1, !range !13, !noundef !14
  %14 = tail call i32 @pthread_mutex_unlock(ptr noundef nonnull @power_mutex) #12
  %.not9 = icmp eq i32 %14, 0
  br i1 %.not9, label %17, label %15

15:                                               ; preds = %._crit_edge
  %16 = tail call ptr @__errno_location() #14
  store i32 %14, ptr %16, align 4
  tail call void (ptr, ...) @fatal_abort(ptr noundef nonnull @.str.12, ptr noundef nonnull @__func__.power_save_test) #15
  unreachable

17:                                               ; preds = %._crit_edge
  %18 = trunc nuw i8 %13 to i1
  ret i1 %18
}